; Function Attrs: mustprogress nofree norecurse nosync nounwind memory(readwrite, inaccessiblemem: none) uwtable
define hidden void @_ZN22SerialBlockOffsetTable21update_for_block_workEPP12HeapWordImplS2_(ptr nocapture noundef nonnull readonly align 8 dereferenceable(136) %0, ptr noundef %1, ptr noundef %2) local_unnamed_addr #3 align 2 {
  %4 = load i32, ptr @_ZN9CardTable10_card_sizeE, align 4
  %5 = ptrtoint ptr %1 to i64
  %6 = add i32 %4, -1
  %7 = zext i32 %6 to i64
  %8 = add i64 %7, %5
  %9 = xor i64 %7, -1
  %10 = and i64 %8, %9
  %11 = getelementptr inbounds i8, ptr %0, i64 128
  %12 = load ptr, ptr %11, align 8
  %13 = load i32, ptr @_ZN9CardTable11_card_shiftE, align 4
  %14 = zext nneg i32 %13 to i64
  %15 = lshr i64 %10, %14
  %16 = getelementptr inbounds i8, ptr %12, i64 %15
  %17 = sub i64 %10, %5
  %18 = lshr i64 %17, 3
  %19 = trunc i64 %18 to i8
  store i8 %19, ptr %16, align 1
  %20 = getelementptr inbounds i8, ptr %2, i64 -8
  %21 = load ptr, ptr %11, align 8
  %22 = ptrtoint ptr %20 to i64
  %23 = load i32, ptr @_ZN9CardTable11_card_shiftE, align 4
  %24 = zext nneg i32 %23 to i64
  %25 = lshr i64 %22, %24
  %26 = getelementptr inbounds i8, ptr %21, i64 %25
  %.not = icmp eq ptr %16, %26
  br i1 %.not, label %.loopexit, label %.preheader

.preheader:                                       ; preds = %3
  %invariant.gep = getelementptr i8, ptr %16, i64 -1
  br label %27

27:                                               ; preds = %.preheader, %28
  %indvars.iv = phi i64 [ 0, %.preheader ], [ %indvars.iv.next, %28 ]
  %.pn = phi ptr [ %16, %.preheader ], [ %gep, %28 ]
  %exitcond.not = icmp eq i64 %indvars.iv, 14
  br i1 %exitcond.not, label %.loopexit, label %28

28:                                               ; preds = %27
  %.0 = getelementptr inbounds i8, ptr %.pn, i64 1
  %indvars.iv.next = add nuw nsw i64 %indvars.iv, 1
  %29 = shl nuw nsw i64 %indvars.iv.next, 2
  %30 = shl nuw nsw i64 1, %29
  %gep = getelementptr i8, ptr %invariant.gep, i64 %30
  %31 = load i32, ptr @_ZN9CardTable19_card_size_in_wordsE, align 4
  %32 = trunc nuw nsw i64 %indvars.iv to i32
  %33 = add i32 %31, %32
  %34 = trunc i32 %33 to i8
  %35 = icmp ult ptr %gep, %26
  %36 = select i1 %35, ptr %gep, ptr %26
  %37 = ptrtoint ptr %36 to i64
  %38 = ptrtoint ptr %.0 to i64
  %reass.sub = sub i64 %37, %38
  %39 = add i64 %reass.sub, 1
  tail call void @llvm.memset.p0.i64(ptr nonnull align 1 %.0, i8 %34, i64 %39, i1 false)
  br i1 %35, label %27, label %.loopexit, !llvm.loop !6

.loopexit:                                        ; preds = %27, %28, %3
  ret void
}